(lp0
(dp1
I3
(lp2
VKEN 
p3
aVHO 
p4
aVCAITLYN 
p5
aVCAITLYN 
p6
asI4
(lp7
VJULIE 
p8
aVJGFJ 
p9
aVCAITLYN 
p10
aVGGJGK 
p11
asI5
(lp12
VARIEL 
p13
aVJOE 
p14
aVLYNN 
p15
aVCAITYN 
p16
asI6
(lp17
VRYAN 
p18
aVKAI 
p19
aVLO 
p20
asI7
(lp21
VRIE 
p22
aVKIE 
p23
asI8
(lp24
VCAITLYN 
p25
asI12
(lp26
VBOB 
p27
asI16
(lp28
VMANDY 
p29
asI18
(lp30
VERIC 
p31
aVRYAN 
p32
asI19
(lp33
VIVY 
p34
asa(dp35
I7
(lp36
VARIEL 
p37
asI14
(lp38
VBOB 
p39
asa(dp40
I2
(lp41
VSTEWARD 
p42
asI16
(lp43
VCATHY 
p44
asI18
(lp45
VASH 
p46
asI19
(lp47
VKEVIN 
p48
asI20
(lp49
VCAITLYN 
p50
asI27
(lp51
VBO 
p52
asa.